; Function Attrs: mustprogress nounwind uwtable
define dso_local void @LLVMPositionBuilderBefore(ptr noundef nonnull %0, ptr noundef %1) local_unnamed_addr #0 {
  %3 = getelementptr inbounds nuw i8, ptr %1, i64 24
  %4 = getelementptr inbounds nuw i8, ptr %1, i64 40
  %5 = load ptr, ptr %4, align 8
  %.not.i = icmp eq ptr %1, null
  %6 = getelementptr inbounds nuw i8, ptr %5, i64 48
  %.sroa.0.0.i = select i1 %.not.i, ptr %6, ptr %3
  tail call void @_ZN4llvm13IRBuilderBase14SetInsertPointEPNS_10BasicBlockENS_21ilist_iterator_w_bitsINS_12ilist_detail12node_optionsINS_11InstructionELb0ELb0EvLb1ES1_EELb0ELb0EEE(ptr noundef nonnull align 8 dereferenceable(128) %0, ptr noundef %5, ptr nonnull %.sroa.0.0.i, i64 0)
  ret void
}